target datalayout = "e-m:e-p270:32:32-p271:32:32-p272:64:64-i64:64-i128:128-f80:128-n8:16:32:64-S128"
target triple = "x86_64-pc-linux-gnu"

; Function Attrs: mustprogress nounwind uwtable
define hidden void @_ZN23ShenandoahControlThread10request_gcEN7GCCause5CauseE(ptr noundef nonnull align 8 dereferenceable(1868) %0, i32 noundef %1) unnamed_addr #1 align 2 {
  %3 = alloca ptr, align 8
  %4 = alloca i32, align 4
  store ptr %0, ptr %3, align 8
  store i32 %1, ptr %4, align 4
  %5 = load ptr, ptr %3, align 8
  %6 = load i32, ptr %4, align 4
  %7 = call noundef zeroext i1 @_ZN25ShenandoahCollectorPolicy26should_handle_requested_gcEN7GCCause5CauseE(i32 noundef %6)
  br i1 %7, label %8, label %10

8:                                                ; preds = %2
  %9 = load i32, ptr %4, align 4
  call void @_ZN23ShenandoahControlThread19handle_requested_gcEN7GCCause5CauseE(ptr noundef nonnull align 8 dereferenceable(1868) %5, i32 noundef %9)
  br label %10

10:                                               ; preds = %8, %2
  ret void
}