; Function Attrs: mustprogress nounwind uwtable
define hidden void @_ZN23ShenandoahControlThread10request_gcEN7GCCause5CauseE(ptr noundef nonnull align 8 dereferenceable(1868) %0, i32 noundef %1) unnamed_addr #0 align 2 {
  %3 = tail call noundef zeroext i1 @_ZN25ShenandoahCollectorPolicy26should_handle_requested_gcEN7GCCause5CauseE(i32 noundef %1) #10
  br i1 %3, label %4, label %5

4:                                                ; preds = %2
  tail call void @_ZN23ShenandoahControlThread19handle_requested_gcEN7GCCause5CauseE(ptr noundef nonnull align 8 dereferenceable(1868) %0, i32 noundef %1)
  br label %5

5:                                                ; preds = %4, %2
  ret void
}